target datalayout = "e-m:e-p270:32:32-p271:32:32-p272:64:64-i64:64-i128:128-f80:128-n8:16:32:64-S128"
target triple = "x86_64-unknown-linux-gnu"

%"struct.re2::PatchList" = type { i32, i32 }
%"class.re2::Compiler" = type <{ %"class.re2::Regexp::Walker", ptr, i8, [3 x i8], i32, i8, [7 x i8], %"class.re2::PODArray", i32, i32, i64, %"class.absl::debian2::flat_hash_map", %"struct.re2::Frag", i32, [4 x i8] }>
%"class.re2::Regexp::Walker" = type { ptr, %"class.std::stack", i8, i32 }
%"class.std::stack" = type { %"class.std::deque" }
%"class.std::deque" = type { %"class.std::_Deque_base" }
%"class.std::_Deque_base" = type { %"struct.std::_Deque_base<re2::WalkState<re2::Frag>, std::allocator<re2::WalkState<re2::Frag>>>::_Deque_impl" }
%"struct.std::_Deque_base<re2::WalkState<re2::Frag>, std::allocator<re2::WalkState<re2::Frag>>>::_Deque_impl" = type { %"struct.std::_Deque_base<re2::WalkState<re2::Frag>, std::allocator<re2::WalkState<re2::Frag>>>::_Deque_impl_data" }
%"struct.std::_Deque_base<re2::WalkState<re2::Frag>, std::allocator<re2::WalkState<re2::Frag>>>::_Deque_impl_data" = type { ptr, i64, %"struct.std::_Deque_iterator", %"struct.std::_Deque_iterator" }
%"struct.std::_Deque_iterator" = type { ptr, ptr, ptr, ptr }
%"class.re2::PODArray" = type { %"class.std::unique_ptr" }
%"class.std::unique_ptr" = type { %"struct.std::__uniq_ptr_data" }
%"struct.std::__uniq_ptr_data" = type { %"class.std::__uniq_ptr_impl" }
%"class.std::__uniq_ptr_impl" = type { %"class.std::tuple" }
%"class.std::tuple" = type { %"struct.std::_Tuple_impl" }
%"struct.std::_Tuple_impl" = type { %"struct.std::_Tuple_impl.0", %"struct.std::_Head_base.1" }
%"struct.std::_Tuple_impl.0" = type { %"struct.std::_Head_base" }
%"struct.std::_Head_base" = type { %"struct.re2::PODArray<re2::Prog::Inst>::Deleter" }
%"struct.re2::PODArray<re2::Prog::Inst>::Deleter" = type { i32 }
%"struct.std::_Head_base.1" = type { ptr }
%"class.absl::debian2::flat_hash_map" = type { %"class.absl::debian2::container_internal::raw_hash_map" }
%"class.absl::debian2::container_internal::raw_hash_map" = type { %"class.absl::debian2::container_internal::raw_hash_set" }
%"class.absl::debian2::container_internal::raw_hash_set" = type { ptr, ptr, i64, i64, %"class.absl::debian2::container_internal::CompressedTuple" }
%"class.absl::debian2::container_internal::CompressedTuple" = type { %"struct.absl::debian2::container_internal::internal_compressed_tuple::CompressedTupleImpl" }
%"struct.absl::debian2::container_internal::internal_compressed_tuple::CompressedTupleImpl" = type { %"struct.absl::debian2::container_internal::internal_compressed_tuple::Storage" }
%"struct.absl::debian2::container_internal::internal_compressed_tuple::Storage" = type { i64 }
%"struct.re2::Frag" = type <{ i32, %"struct.re2::PatchList", i8, [3 x i8] }>

@_ZN3re2L14kNullPatchListE = internal constant %"struct.re2::PatchList" zeroinitializer, align 4

; Function Attrs: mustprogress nounwind uwtable
define linkonce_odr void @_ZN3re24FragC2Ev(ptr noundef nonnull align 4 dereferenceable(13) %this) unnamed_addr #1 comdat align 2 {
entry:
  %this.addr = alloca ptr, align 8
  store ptr %this, ptr %this.addr, align 8
  %this1 = load ptr, ptr %this.addr, align 8
  %begin = getelementptr inbounds %"struct.re2::Frag", ptr %this1, i32 0, i32 0
  store i32 0, ptr %begin, align 4
  %end = getelementptr inbounds %"struct.re2::Frag", ptr %this1, i32 0, i32 1
  call void @llvm.memcpy.p0.p0.i64(ptr align 4 %end, ptr align 4 @_ZN3re2L14kNullPatchListE, i64 8, i1 false)
  %nullable = getelementptr inbounds %"struct.re2::Frag", ptr %this1, i32 0, i32 2
  store i8 0, ptr %nullable, align 4
  ret void
}

; Function Attrs: mustprogress uwtable
define { i64, i64 } @_ZN3re28Compiler7NoMatchEv(ptr noundef nonnull align 8 dereferenceable(212) %this) #0 align 2 {
entry:
  %retval = alloca %"struct.re2::Frag", align 4
  %this.addr = alloca ptr, align 8
  store ptr %this, ptr %this.addr, align 8
  call void @_ZN3re24FragC2Ev(ptr noundef nonnull align 4 dereferenceable(13) %retval)
  %0 = load { i64, i64 }, ptr %retval, align 4
  ret { i64, i64 } %0
}

; Function Attrs: mustprogress uwtable
define { i64, i64 } @_ZN3re28Compiler10ShortVisitEPNS_6RegexpENS_4FragE(ptr noundef nonnull align 8 dereferenceable(212) %this, ptr noundef %re, i64 %.coerce0, i64 %.coerce1) unnamed_addr #0 align 2 {
entry:
  %retval = alloca %"struct.re2::Frag", align 4
  %0 = alloca %"struct.re2::Frag", align 4
  %this.addr = alloca ptr, align 8
  %re.addr = alloca ptr, align 8
  %1 = getelementptr inbounds { i64, i64 }, ptr %0, i32 0, i32 0
  store i64 %.coerce0, ptr %1, align 4
  %2 = getelementptr inbounds { i64, i64 }, ptr %0, i32 0, i32 1
  store i64 %.coerce1, ptr %2, align 4
  store ptr %this, ptr %this.addr, align 8
  store ptr %re, ptr %re.addr, align 8
  %this1 = load ptr, ptr %this.addr, align 8
  %failed_ = getelementptr inbounds %"class.re2::Compiler", ptr %this1, i32 0, i32 2
  store i8 1, ptr %failed_, align 8
  %call = call { i64, i64 } @_ZN3re28Compiler7NoMatchEv(ptr noundef nonnull align 8 dereferenceable(212) %this1)
  %3 = getelementptr inbounds { i64, i64 }, ptr %retval, i32 0, i32 0
  %4 = extractvalue { i64, i64 } %call, 0
  store i64 %4, ptr %3, align 4
  %5 = getelementptr inbounds { i64, i64 }, ptr %retval, i32 0, i32 1
  %6 = extractvalue { i64, i64 } %call, 1
  store i64 %6, ptr %5, align 4
  %7 = load { i64, i64 }, ptr %retval, align 4
  ret { i64, i64 } %7
}