; Function Attrs: mustprogress nofree norecurse nosync nounwind willreturn memory(argmem: write) uwtable
define { i64, i64 } @_ZN3re28Compiler10ShortVisitEPNS_6RegexpENS_4FragE(ptr nocapture noundef nonnull writeonly align 8 dereferenceable(212) %this, ptr nocapture readnone %re, i64 %.coerce0, i64 %.coerce1) unnamed_addr #14 align 2 {
entry:
  %retval.i = alloca %"struct.re2::Frag", align 8
  %failed_ = getelementptr inbounds i8, ptr %this, i64 104
  store i8 1, ptr %failed_, align 8
  call void @llvm.lifetime.start.p0(i64 16, ptr nonnull %retval.i)
  store i32 0, ptr %retval.i, align 8
  %retval.i.4.retval.i.4.retval.i.4.retval.4.retval.4.end.i.sroa_idx = getelementptr inbounds i8, ptr %retval.i, i64 4
  store i64 0, ptr %retval.i.4.retval.i.4.retval.i.4.retval.4.retval.4.end.i.sroa_idx, align 4
  %retval.i.12.retval.i.12.retval.i.12.retval.12.retval.12.nullable.i.sroa_idx = getelementptr inbounds i8, ptr %retval.i, i64 12
  store i8 0, ptr %retval.i.12.retval.i.12.retval.i.12.retval.12.retval.12.nullable.i.sroa_idx, align 4
  %retval.i.0.retval.i.0.retval.i.0.retval.0.retval.0..fca.0.load.i = load i64, ptr %retval.i, align 8
  %.fca.0.insert.i = insertvalue { i64, i64 } poison, i64 %retval.i.0.retval.i.0.retval.i.0.retval.0.retval.0..fca.0.load.i, 0
  %retval.i.8.retval.i.8.retval.i.8.retval.8.retval.8..fca.1.gep.sroa_idx = getelementptr inbounds i8, ptr %retval.i, i64 8
  %retval.i.8.retval.i.8.retval.i.8.retval.8.retval.8..fca.1.load.i = load i64, ptr %retval.i.8.retval.i.8.retval.i.8.retval.8.retval.8..fca.1.gep.sroa_idx, align 8
  %.fca.1.insert.i = insertvalue { i64, i64 } %.fca.0.insert.i, i64 %retval.i.8.retval.i.8.retval.i.8.retval.8.retval.8..fca.1.load.i, 1
  call void @llvm.lifetime.end.p0(i64 16, ptr nonnull %retval.i)
  ret { i64, i64 } %.fca.1.insert.i
}